target datalayout = "e-m:e-p270:32:32-p271:32:32-p272:64:64-i64:64-i128:128-f80:128-n8:16:32:64-S128"
target triple = "x86_64-pc-linux-gnu"

; Function Attrs: nounwind uwtable
define internal i32 @VP8LSubPixels(i32 noundef %0, i32 noundef %1) #0 {
  %3 = alloca i32, align 4
  %4 = alloca i32, align 4
  %5 = alloca i32, align 4
  %6 = alloca i32, align 4
  store i32 %0, ptr %3, align 4
  store i32 %1, ptr %4, align 4
  %7 = load i32, ptr %3, align 4
  %8 = and i32 %7, -16711936
  %9 = add i32 16711935, %8
  %10 = load i32, ptr %4, align 4
  %11 = and i32 %10, -16711936
  %12 = sub i32 %9, %11
  store i32 %12, ptr %5, align 4
  %13 = load i32, ptr %3, align 4
  %14 = and i32 %13, 16711935
  %15 = add i32 -16711936, %14
  %16 = load i32, ptr %4, align 4
  %17 = and i32 %16, 16711935
  %18 = sub i32 %15, %17
  store i32 %18, ptr %6, align 4
  %19 = load i32, ptr %5, align 4
  %20 = and i32 %19, -16711936
  %21 = load i32, ptr %6, align 4
  %22 = and i32 %21, 16711935
  %23 = or i32 %20, %22
  ret i32 %23
}

; Function Attrs: nounwind uwtable
define internal void @PredictorSub3_C(ptr noundef %0, ptr noundef %1, i32 noundef %2, ptr noundef %3) #0 {
  %5 = alloca ptr, align 8
  %6 = alloca ptr, align 8
  %7 = alloca i32, align 4
  %8 = alloca ptr, align 8
  %9 = alloca i32, align 4
  %10 = alloca i32, align 4
  store ptr %0, ptr %5, align 8
  store ptr %1, ptr %6, align 8
  store i32 %2, ptr %7, align 4
  store ptr %3, ptr %8, align 8
  store i32 0, ptr %9, align 4
  br label %11

11:                                               ; preds = %37, %4
  %12 = load i32, ptr %9, align 4
  %13 = load i32, ptr %7, align 4
  %14 = icmp slt i32 %12, %13
  br i1 %14, label %15, label %40

15:                                               ; preds = %11
  %16 = load ptr, ptr %5, align 8
  %17 = load i32, ptr %9, align 4
  %18 = sub nsw i32 %17, 1
  %19 = sext i32 %18 to i64
  %20 = getelementptr inbounds i32, ptr %16, i64 %19
  %21 = load ptr, ptr %6, align 8
  %22 = load i32, ptr %9, align 4
  %23 = sext i32 %22 to i64
  %24 = getelementptr inbounds i32, ptr %21, i64 %23
  %25 = call i32 @VP8LPredictor3_C(ptr noundef %20, ptr noundef %24)
  store i32 %25, ptr %10, align 4
  %26 = load ptr, ptr %5, align 8
  %27 = load i32, ptr %9, align 4
  %28 = sext i32 %27 to i64
  %29 = getelementptr inbounds i32, ptr %26, i64 %28
  %30 = load i32, ptr %29, align 4
  %31 = load i32, ptr %10, align 4
  %32 = call i32 @VP8LSubPixels(i32 noundef %30, i32 noundef %31)
  %33 = load ptr, ptr %8, align 8
  %34 = load i32, ptr %9, align 4
  %35 = sext i32 %34 to i64
  %36 = getelementptr inbounds i32, ptr %33, i64 %35
  store i32 %32, ptr %36, align 4
  br label %37

37:                                               ; preds = %15
  %38 = load i32, ptr %9, align 4
  %39 = add nsw i32 %38, 1
  store i32 %39, ptr %9, align 4
  br label %11, !llvm.loop !27

40:                                               ; preds = %11
  ret void
}